target datalayout = "e-m:e-p270:32:32-p271:32:32-p272:64:64-i64:64-i128:128-f80:128-n8:16:32:64-S128"
target triple = "x86_64-pc-linux-gnu"

; Function Attrs: inlinehint nounwind sspstrong willreturn memory(none) uwtable
define internal zeroext i1 @RB_UNDEF_P(i64 noundef %0) #5 {
  %2 = alloca i64, align 8
  store i64 %0, ptr %2, align 8, !tbaa !7
  %3 = load i64, ptr %2, align 8, !tbaa !7
  %4 = icmp eq i64 %3, 36
  ret i1 %4
}

; Function Attrs: nounwind sspstrong uwtable
define internal i32 @hash_le_i(i64 noundef %0, i64 noundef %1, i64 noundef %2) #0 {
  %4 = alloca i32, align 4
  %5 = alloca i64, align 8
  %6 = alloca i64, align 8
  %7 = alloca i64, align 8
  %8 = alloca ptr, align 8
  %9 = alloca i64, align 8
  %10 = alloca i32, align 4
  store i64 %0, ptr %5, align 8, !tbaa !7
  store i64 %1, ptr %6, align 8, !tbaa !7
  store i64 %2, ptr %7, align 8, !tbaa !7
  call void @llvm.lifetime.start.p0(i64 8, ptr %8) #28
  %11 = load i64, ptr %7, align 8, !tbaa !7
  %12 = inttoptr i64 %11 to ptr
  store ptr %12, ptr %8, align 8, !tbaa !11
  call void @llvm.lifetime.start.p0(i64 8, ptr %9) #28
  %13 = load ptr, ptr %8, align 8, !tbaa !11
  %14 = getelementptr i64, ptr %13, i64 0
  %15 = load i64, ptr %14, align 8, !tbaa !7
  %16 = load i64, ptr %5, align 8, !tbaa !7
  %17 = call i64 @rb_hash_lookup2(i64 noundef %15, i64 noundef %16, i64 noundef 36)
  store i64 %17, ptr %9, align 8, !tbaa !7
  %18 = load i64, ptr %9, align 8, !tbaa !7
  %19 = call zeroext i1 @RB_UNDEF_P(i64 noundef %18) #27
  br i1 %19, label %26, label %20

20:                                               ; preds = %3
  %21 = load i64, ptr %6, align 8, !tbaa !7
  %22 = load i64, ptr %9, align 8, !tbaa !7
  %23 = call i64 @rb_equal(i64 noundef %21, i64 noundef %22)
  %24 = icmp ne i64 %23, 0
  br i1 %24, label %25, label %26

25:                                               ; preds = %20
  store i32 0, ptr %4, align 4
  store i32 1, ptr %10, align 4
  br label %29

26:                                               ; preds = %20, %3
  %27 = load ptr, ptr %8, align 8, !tbaa !11
  %28 = getelementptr i64, ptr %27, i64 1
  store i64 0, ptr %28, align 8, !tbaa !7
  store i32 1, ptr %4, align 4
  store i32 1, ptr %10, align 4
  br label %29

29:                                               ; preds = %26, %25
  call void @llvm.lifetime.end.p0(i64 8, ptr %9) #28
  call void @llvm.lifetime.end.p0(i64 8, ptr %8) #28
  %30 = load i32, ptr %4, align 4
  ret i32 %30
}