; Function Attrs: nounwind sspstrong uwtable
define internal range(i32 0, 2) i32 @hash_le_i(i64 noundef %0, i64 noundef %1, i64 noundef %2) #0 {
  %4 = inttoptr i64 %2 to ptr
  %5 = load i64, ptr %4, align 8, !tbaa !7
  %6 = tail call i64 @rb_hash_lookup2(i64 noundef %5, i64 noundef %0, i64 noundef 36)
  %7 = icmp eq i64 %6, 36
  br i1 %7, label %10, label %8

8:                                                ; preds = %3
  %9 = tail call i64 @rb_equal(i64 noundef %1, i64 noundef %6) #28
  %.not = icmp eq i64 %9, 0
  br i1 %.not, label %10, label %12

10:                                               ; preds = %8, %3
  %11 = getelementptr i8, ptr %4, i64 8
  store i64 0, ptr %11, align 8, !tbaa !7
  br label %12

12:                                               ; preds = %8, %10
  %.0 = phi i32 [ 1, %10 ], [ 0, %8 ]
  ret i32 %.0
}